; Function Attrs: nounwind uwtable
define dso_local void @revision_opts_finish(ptr noundef captures(none) %0) local_unnamed_addr #2 {
  %2 = getelementptr inbounds nuw i8, ptr %0, i64 1400
  %3 = load ptr, ptr %2, align 8, !tbaa !227
  %.not = icmp eq ptr %3, null
  br i1 %.not, label %.thread, label %4

4:                                                ; preds = %1
  %5 = getelementptr inbounds nuw i8, ptr %0, i64 300
  %6 = load i32, ptr %5, align 4
  %7 = and i32 %6, 262144
  %.not5 = icmp eq i32 %7, 0
  br i1 %.not5, label %10, label %8

8:                                                ; preds = %4
  %9 = tail call fastcc ptr @_(ptr noundef nonnull @.str.9)
  tail call void (ptr, ...) @die(ptr noundef %9, ptr noundef nonnull @.str.10, ptr noundef nonnull @.str.11) #28
  unreachable

10:                                               ; preds = %4
  %11 = getelementptr inbounds nuw i8, ptr %0, i64 288
  %12 = load i64, ptr %11, align 8
  %13 = or i64 %12, 268435968
  store i64 %13, ptr %11, align 8
  br label %.thread

.thread:                                          ; preds = %1, %10
  ret void
}